target datalayout = "e-m:e-p270:32:32-p271:32:32-p272:64:64-i64:64-i128:128-f80:128-n8:16:32:64-S128"
target triple = "x86_64-pc-linux-gnu"

%"class.Eigen::Matrix" = type { %"class.Eigen::PlainObjectBase" }
%"class.Eigen::PlainObjectBase" = type { %"class.Eigen::DenseStorage" }
%"class.Eigen::DenseStorage" = type { %"struct.Eigen::internal::plain_array" }
%"struct.Eigen::internal::plain_array" = type { [16 x float] }
%class.EditSelectPlugin = type <{ %class.QObject, %class.EditTool, %"class.vcg::Point2", %"class.vcg::Point2", %"class.vcg::Point2", i8, [3 x i8], i32, %"class.std::vector.16", %"class.std::vector.21", %"class.std::vector.26", i32, i32, [16 x double], [16 x double], [4 x i32], %"class.Eigen::Matrix", [4 x float], i32, i8, [11 x i8] }>
%class.QObject = type { ptr, %class.QScopedPointer }
%class.QScopedPointer = type { ptr }
%class.EditTool = type { %class.MeshLabPluginLogger }
%class.MeshLabPluginLogger = type { ptr, ptr }
%"class.vcg::Point2" = type { [2 x float] }
%"class.std::vector.16" = type { %"struct.std::_Vector_base.17" }
%"struct.std::_Vector_base.17" = type { %"struct.std::_Vector_base<CFaceO *, std::allocator<CFaceO *>>::_Vector_impl" }
%"struct.std::_Vector_base<CFaceO *, std::allocator<CFaceO *>>::_Vector_impl" = type { %"struct.std::_Vector_base<CFaceO *, std::allocator<CFaceO *>>::_Vector_impl_data" }
%"struct.std::_Vector_base<CFaceO *, std::allocator<CFaceO *>>::_Vector_impl_data" = type { ptr, ptr, ptr }
%"class.std::vector.21" = type { %"struct.std::_Vector_base.22" }
%"struct.std::_Vector_base.22" = type { %"struct.std::_Vector_base<CVertexO *, std::allocator<CVertexO *>>::_Vector_impl" }
%"struct.std::_Vector_base<CVertexO *, std::allocator<CVertexO *>>::_Vector_impl" = type { %"struct.std::_Vector_base<CVertexO *, std::allocator<CVertexO *>>::_Vector_impl_data" }
%"struct.std::_Vector_base<CVertexO *, std::allocator<CVertexO *>>::_Vector_impl_data" = type { ptr, ptr, ptr }
%"class.std::vector.26" = type { %"struct.std::_Vector_base.27" }
%"struct.std::_Vector_base.27" = type { %"struct.std::_Vector_base<vcg::Point2<float>, std::allocator<vcg::Point2<float>>>::_Vector_impl" }
%"struct.std::_Vector_base<vcg::Point2<float>, std::allocator<vcg::Point2<float>>>::_Vector_impl" = type { %"struct.std::_Vector_base<vcg::Point2<float>, std::allocator<vcg::Point2<float>>>::_Vector_impl_data" }
%"struct.std::_Vector_base<vcg::Point2<float>, std::allocator<vcg::Point2<float>>>::_Vector_impl_data" = type { ptr, ptr, ptr }
%class.QPaintDevice = type { ptr, i16, ptr }
%class.QWidget = type { %class.QObject, %class.QPaintDevice, ptr }
%class.QFont = type <{ %class.QExplicitlySharedDataPointer, i32, [4 x i8] }>
%class.QExplicitlySharedDataPointer = type { ptr }
%class.QWidgetData = type { i64, i32, %class.QFlags.317, i32, %class.QRect, [4 x i8], %class.QPalette, %class.QFont, %class.QRect }
%class.QFlags.317 = type { i32 }
%class.QPalette = type <{ ptr, %union.anon.318, [4 x i8] }>
%union.anon.318 = type { %"struct.QPalette::Data" }
%"struct.QPalette::Data" = type { i32 }
%class.QRect = type { i32, i32, i32, i32 }

; Function Attrs: mustprogress nounwind uwtable
define linkonce_odr noundef i32 @_ZNK5QRect6heightEv(ptr noundef nonnull align 4 dereferenceable(16) %0) #4 comdat align 2 {
  %2 = alloca ptr, align 8
  store ptr %0, ptr %2, align 8
  %3 = load ptr, ptr %2, align 8
  %4 = getelementptr inbounds %class.QRect, ptr %3, i32 0, i32 3
  %5 = load i32, ptr %4, align 4
  %6 = getelementptr inbounds %class.QRect, ptr %3, i32 0, i32 1
  %7 = load i32, ptr %6, align 4
  %8 = sub nsw i32 %5, %7
  %9 = add nsw i32 %8, 1
  ret i32 %9
}

; Function Attrs: mustprogress uwtable
define linkonce_odr noundef i32 @_ZNK12QPaintDevice16devicePixelRatioEv(ptr noundef nonnull align 8 dereferenceable(24) %0) #5 comdat align 2 {
  %2 = alloca ptr, align 8
  store ptr %0, ptr %2, align 8
  %3 = load ptr, ptr %2, align 8
  %4 = load ptr, ptr %3, align 8
  %5 = getelementptr inbounds ptr, ptr %4, i64 4
  %6 = load ptr, ptr %5, align 8
  %7 = call noundef i32 %6(ptr noundef nonnull align 8 dereferenceable(24) %3, i32 noundef 11)
  ret i32 %7
}

; Function Attrs: mustprogress nounwind uwtable
define linkonce_odr noundef i32 @_ZNK5QRect5widthEv(ptr noundef nonnull align 4 dereferenceable(16) %0) #4 comdat align 2 {
  %2 = alloca ptr, align 8
  store ptr %0, ptr %2, align 8
  %3 = load ptr, ptr %2, align 8
  %4 = getelementptr inbounds %class.QRect, ptr %3, i32 0, i32 2
  %5 = load i32, ptr %4, align 4
  %6 = getelementptr inbounds %class.QRect, ptr %3, i32 0, i32 0
  %7 = load i32, ptr %6, align 4
  %8 = sub nsw i32 %5, %7
  %9 = add nsw i32 %8, 1
  ret i32 %9
}

; Function Attrs: mustprogress nounwind uwtable
define linkonce_odr noundef ptr @_ZNK3vcg6Point2IfE1VEv(ptr noundef nonnull align 4 dereferenceable(8) %0) #4 comdat align 2 {
  %2 = alloca ptr, align 8
  store ptr %0, ptr %2, align 8
  %3 = load ptr, ptr %2, align 8
  %4 = getelementptr inbounds %"class.vcg::Point2", ptr %3, i32 0, i32 0
  %5 = getelementptr inbounds [2 x float], ptr %4, i64 0, i64 0
  ret ptr %5
}

; Function Attrs: mustprogress nounwind uwtable
define linkonce_odr noundef i32 @_ZNK7QWidget6heightEv(ptr noundef nonnull align 8 dereferenceable(48) %0) #4 comdat align 2 {
  %2 = alloca ptr, align 8
  store ptr %0, ptr %2, align 8
  %3 = load ptr, ptr %2, align 8
  %4 = getelementptr inbounds %class.QWidget, ptr %3, i32 0, i32 2
  %5 = load ptr, ptr %4, align 8
  %6 = getelementptr inbounds %class.QWidgetData, ptr %5, i32 0, i32 4
  %7 = call noundef i32 @_ZNK5QRect6heightEv(ptr noundef nonnull align 4 dereferenceable(16) %6) #3
  ret i32 %7
}

; Function Attrs: mustprogress uwtable
define linkonce_odr noundef i32 @_Z17QTLogicalToDeviceIiET_P7QWidgetRKS0_(ptr noundef %0, ptr noundef nonnull align 4 dereferenceable(4) %1) #5 comdat {
  %3 = alloca ptr, align 8
  %4 = alloca ptr, align 8
  store ptr %0, ptr %3, align 8
  store ptr %1, ptr %4, align 8
  %5 = load ptr, ptr %4, align 8
  %6 = load i32, ptr %5, align 4
  %7 = load ptr, ptr %3, align 8
  %8 = getelementptr inbounds i8, ptr %7, i64 16
  %9 = call noundef i32 @_ZNK12QPaintDevice16devicePixelRatioEv(ptr noundef nonnull align 8 dereferenceable(24) %8)
  %10 = mul nsw i32 %6, %9
  ret i32 %10
}

; Function Attrs: mustprogress nounwind uwtable
define linkonce_odr noundef i32 @_ZNK7QWidget5widthEv(ptr noundef nonnull align 8 dereferenceable(48) %0) #4 comdat align 2 {
  %2 = alloca ptr, align 8
  store ptr %0, ptr %2, align 8
  %3 = load ptr, ptr %2, align 8
  %4 = getelementptr inbounds %class.QWidget, ptr %3, i32 0, i32 2
  %5 = load ptr, ptr %4, align 8
  %6 = getelementptr inbounds %class.QWidgetData, ptr %5, i32 0, i32 4
  %7 = call noundef i32 @_ZNK5QRect5widthEv(ptr noundef nonnull align 4 dereferenceable(16) %6) #3
  ret i32 %7
}

; Function Attrs: mustprogress nounwind uwtable
define linkonce_odr noundef nonnull align 4 dereferenceable(4) ptr @_ZN3vcg6Point2IfE1YEv(ptr noundef nonnull align 4 dereferenceable(8) %0) #4 comdat align 2 {
  %2 = alloca ptr, align 8
  store ptr %0, ptr %2, align 8
  %3 = load ptr, ptr %2, align 8
  %4 = getelementptr inbounds %"class.vcg::Point2", ptr %3, i32 0, i32 0
  %5 = getelementptr inbounds [2 x float], ptr %4, i64 0, i64 1
  ret ptr %5
}

; Function Attrs: mustprogress nounwind uwtable
define linkonce_odr noundef nonnull align 4 dereferenceable(4) ptr @_ZN3vcg6Point2IfE1XEv(ptr noundef nonnull align 4 dereferenceable(8) %0) #4 comdat align 2 {
  %2 = alloca ptr, align 8
  store ptr %0, ptr %2, align 8
  %3 = load ptr, ptr %2, align 8
  %4 = getelementptr inbounds %"class.vcg::Point2", ptr %3, i32 0, i32 0
  %5 = getelementptr inbounds [2 x float], ptr %4, i64 0, i64 0
  ret ptr %5
}

; Function Attrs: mustprogress uwtable
define linkonce_odr void @_ZN3vcg8glVertexERKNS_6Point2IfEE(ptr noundef nonnull align 4 dereferenceable(8) %0) #5 comdat {
  %2 = alloca ptr, align 8
  store ptr %0, ptr %2, align 8
  %3 = load ptr, ptr %2, align 8
  %4 = call noundef ptr @_ZNK3vcg6Point2IfE1VEv(ptr noundef nonnull align 4 dereferenceable(8) %3)
  call void @glVertex2fv(ptr noundef %4)
  ret void
}

; Function Attrs: mustprogress uwtable
define linkonce_odr noundef i32 @_Z14QTDeviceHeightP7QWidget(ptr noundef %0) #5 comdat {
  %2 = alloca ptr, align 8
  %3 = alloca i32, align 4
  store ptr %0, ptr %2, align 8
  %4 = load ptr, ptr %2, align 8
  %5 = load ptr, ptr %2, align 8
  %6 = call noundef i32 @_ZNK7QWidget6heightEv(ptr noundef nonnull align 8 dereferenceable(48) %5)
  store i32 %6, ptr %3, align 4
  %7 = call noundef i32 @_Z17QTLogicalToDeviceIiET_P7QWidgetRKS0_(ptr noundef %4, ptr noundef nonnull align 4 dereferenceable(4) %3)
  ret i32 %7
}

; Function Attrs: mustprogress uwtable
define linkonce_odr noundef i32 @_Z13QTDeviceWidthP7QWidget(ptr noundef %0) #5 comdat {
  %2 = alloca ptr, align 8
  %3 = alloca i32, align 4
  store ptr %0, ptr %2, align 8
  %4 = load ptr, ptr %2, align 8
  %5 = load ptr, ptr %2, align 8
  %6 = call noundef i32 @_ZNK7QWidget5widthEv(ptr noundef nonnull align 8 dereferenceable(48) %5)
  store i32 %6, ptr %3, align 4
  %7 = call noundef i32 @_Z17QTLogicalToDeviceIiET_P7QWidgetRKS0_(ptr noundef %4, ptr noundef nonnull align 4 dereferenceable(4) %3)
  ret i32 %7
}

; Function Attrs: mustprogress uwtable
define void @_ZN16EditSelectPlugin11DrawXORRectEP6GLAreab(ptr noundef nonnull align 16 dereferenceable(501) %0, ptr noundef %1, i1 noundef zeroext %2) #5 align 2 {
  %4 = alloca ptr, align 8
  %5 = alloca ptr, align 8
  %6 = alloca i8, align 1
  store ptr %0, ptr %4, align 8
  store ptr %1, ptr %5, align 8
  %7 = zext i1 %2 to i8
  store i8 %7, ptr %6, align 1
  %8 = load ptr, ptr %4, align 8
  call void @glMatrixMode(i32 noundef 5889)
  call void @glPushMatrix()
  call void @glLoadIdentity()
  %9 = load ptr, ptr %5, align 8
  %10 = call noundef i32 @_Z13QTDeviceWidthP7QWidget(ptr noundef %9)
  %11 = sitofp i32 %10 to double
  %12 = load ptr, ptr %5, align 8
  %13 = call noundef i32 @_Z14QTDeviceHeightP7QWidget(ptr noundef %12)
  %14 = sitofp i32 %13 to double
  call void @glOrtho(double noundef 0.000000e+00, double noundef %11, double noundef 0.000000e+00, double noundef %14, double noundef -1.000000e+00, double noundef 1.000000e+00)
  call void @glMatrixMode(i32 noundef 5888)
  call void @glPushMatrix()
  call void @glLoadIdentity()
  call void @glPushAttrib(i32 noundef 8192)
  call void @glDisable(i32 noundef 2929)
  call void @glDisable(i32 noundef 2896)
  call void @glDisable(i32 noundef 3553)
  call void @glEnable(i32 noundef 3058)
  call void @glLogicOp(i32 noundef 5382)
  call void @glColor3f(float noundef 1.000000e+00, float noundef 1.000000e+00, float noundef 1.000000e+00)
  %15 = load i8, ptr %6, align 1
  %16 = trunc i8 %15 to i1
  br i1 %16, label %17, label %32

17:                                               ; preds = %3
  call void @glBegin(i32 noundef 2)
  %18 = getelementptr inbounds %class.EditSelectPlugin, ptr %8, i32 0, i32 2
  call void @_ZN3vcg8glVertexERKNS_6Point2IfEE(ptr noundef nonnull align 4 dereferenceable(8) %18)
  %19 = getelementptr inbounds %class.EditSelectPlugin, ptr %8, i32 0, i32 4
  %20 = call noundef nonnull align 4 dereferenceable(4) ptr @_ZN3vcg6Point2IfE1XEv(ptr noundef nonnull align 4 dereferenceable(8) %19)
  %21 = load float, ptr %20, align 4
  %22 = getelementptr inbounds %class.EditSelectPlugin, ptr %8, i32 0, i32 2
  %23 = call noundef nonnull align 4 dereferenceable(4) ptr @_ZN3vcg6Point2IfE1YEv(ptr noundef nonnull align 4 dereferenceable(8) %22)
  %24 = load float, ptr %23, align 4
  call void @glVertex2f(float noundef %21, float noundef %24)
  %25 = getelementptr inbounds %class.EditSelectPlugin, ptr %8, i32 0, i32 4
  call void @_ZN3vcg8glVertexERKNS_6Point2IfEE(ptr noundef nonnull align 4 dereferenceable(8) %25)
  %26 = getelementptr inbounds %class.EditSelectPlugin, ptr %8, i32 0, i32 2
  %27 = call noundef nonnull align 4 dereferenceable(4) ptr @_ZN3vcg6Point2IfE1XEv(ptr noundef nonnull align 4 dereferenceable(8) %26)
  %28 = load float, ptr %27, align 4
  %29 = getelementptr inbounds %class.EditSelectPlugin, ptr %8, i32 0, i32 4
  %30 = call noundef nonnull align 4 dereferenceable(4) ptr @_ZN3vcg6Point2IfE1YEv(ptr noundef nonnull align 4 dereferenceable(8) %29)
  %31 = load float, ptr %30, align 4
  call void @glVertex2f(float noundef %28, float noundef %31)
  call void @glEnd()
  br label %32

32:                                               ; preds = %17, %3
  call void @glBegin(i32 noundef 2)
  %33 = getelementptr inbounds %class.EditSelectPlugin, ptr %8, i32 0, i32 2
  call void @_ZN3vcg8glVertexERKNS_6Point2IfEE(ptr noundef nonnull align 4 dereferenceable(8) %33)
  %34 = getelementptr inbounds %class.EditSelectPlugin, ptr %8, i32 0, i32 3
  %35 = call noundef nonnull align 4 dereferenceable(4) ptr @_ZN3vcg6Point2IfE1XEv(ptr noundef nonnull align 4 dereferenceable(8) %34)
  %36 = load float, ptr %35, align 4
  %37 = getelementptr inbounds %class.EditSelectPlugin, ptr %8, i32 0, i32 2
  %38 = call noundef nonnull align 4 dereferenceable(4) ptr @_ZN3vcg6Point2IfE1YEv(ptr noundef nonnull align 4 dereferenceable(8) %37)
  %39 = load float, ptr %38, align 4
  call void @glVertex2f(float noundef %36, float noundef %39)
  %40 = getelementptr inbounds %class.EditSelectPlugin, ptr %8, i32 0, i32 3
  call void @_ZN3vcg8glVertexERKNS_6Point2IfEE(ptr noundef nonnull align 4 dereferenceable(8) %40)
  %41 = getelementptr inbounds %class.EditSelectPlugin, ptr %8, i32 0, i32 2
  %42 = call noundef nonnull align 4 dereferenceable(4) ptr @_ZN3vcg6Point2IfE1XEv(ptr noundef nonnull align 4 dereferenceable(8) %41)
  %43 = load float, ptr %42, align 4
  %44 = getelementptr inbounds %class.EditSelectPlugin, ptr %8, i32 0, i32 3
  %45 = call noundef nonnull align 4 dereferenceable(4) ptr @_ZN3vcg6Point2IfE1YEv(ptr noundef nonnull align 4 dereferenceable(8) %44)
  %46 = load float, ptr %45, align 4
  call void @glVertex2f(float noundef %43, float noundef %46)
  call void @glEnd()
  call void @glDisable(i32 noundef 3057)
  call void @glPopAttrib()
  call void @glPopMatrix()
  call void @glMatrixMode(i32 noundef 5889)
  call void @glPopMatrix()
  call void @glMatrixMode(i32 noundef 5888)
  ret void
}