; Function Attrs: mustprogress uwtable
define void @_ZN16EditSelectPlugin11DrawXORRectEP6GLAreab(ptr noundef nonnull align 16 dereferenceable(501) %0, ptr noundef %1, i1 noundef zeroext %2) local_unnamed_addr #9 align 2 {
  tail call void @glMatrixMode(i32 noundef 5889)
  tail call void @glPushMatrix()
  tail call void @glLoadIdentity()
  %4 = getelementptr inbounds i8, ptr %1, i64 40
  %5 = load ptr, ptr %4, align 8
  %6 = getelementptr inbounds i8, ptr %5, i64 20
  %7 = getelementptr inbounds i8, ptr %5, i64 28
  %8 = load i32, ptr %7, align 4
  %9 = load i32, ptr %6, align 4
  %10 = add i32 %8, 1
  %11 = sub i32 %10, %9
  %12 = getelementptr inbounds i8, ptr %1, i64 16
  %13 = load ptr, ptr %12, align 8
  %14 = getelementptr inbounds i8, ptr %13, i64 32
  %15 = load ptr, ptr %14, align 8
  %16 = tail call noundef i32 %15(ptr noundef nonnull align 8 dereferenceable(24) %12, i32 noundef 11)
  %17 = mul nsw i32 %16, %11
  %18 = sitofp i32 %17 to double
  %19 = load ptr, ptr %4, align 8
  %20 = getelementptr inbounds i8, ptr %19, i64 32
  %21 = load i32, ptr %20, align 4
  %22 = getelementptr inbounds i8, ptr %19, i64 24
  %23 = load i32, ptr %22, align 4
  %24 = add i32 %21, 1
  %25 = sub i32 %24, %23
  %26 = load ptr, ptr %12, align 8
  %27 = getelementptr inbounds i8, ptr %26, i64 32
  %28 = load ptr, ptr %27, align 8
  %29 = tail call noundef i32 %28(ptr noundef nonnull align 8 dereferenceable(24) %12, i32 noundef 11)
  %30 = mul nsw i32 %29, %25
  %31 = sitofp i32 %30 to double
  tail call void @glOrtho(double noundef 0.000000e+00, double noundef %18, double noundef 0.000000e+00, double noundef %31, double noundef -1.000000e+00, double noundef 1.000000e+00)
  tail call void @glMatrixMode(i32 noundef 5888)
  tail call void @glPushMatrix()
  tail call void @glLoadIdentity()
  tail call void @glPushAttrib(i32 noundef 8192)
  tail call void @glDisable(i32 noundef 2929)
  tail call void @glDisable(i32 noundef 2896)
  tail call void @glDisable(i32 noundef 3553)
  tail call void @glEnable(i32 noundef 3058)
  tail call void @glLogicOp(i32 noundef 5382)
  tail call void @glColor3f(float noundef 1.000000e+00, float noundef 1.000000e+00, float noundef 1.000000e+00)
  br i1 %2, label %32, label %41

32:                                               ; preds = %3
  tail call void @glBegin(i32 noundef 2)
  %33 = getelementptr inbounds i8, ptr %0, i64 32
  tail call void @glVertex2fv(ptr noundef nonnull %33)
  %34 = getelementptr inbounds i8, ptr %0, i64 48
  %35 = load float, ptr %34, align 16
  %36 = getelementptr inbounds i8, ptr %0, i64 36
  %37 = load float, ptr %36, align 4
  tail call void @glVertex2f(float noundef %35, float noundef %37)
  tail call void @glVertex2fv(ptr noundef nonnull %34)
  %38 = load float, ptr %33, align 16
  %39 = getelementptr inbounds i8, ptr %0, i64 52
  %40 = load float, ptr %39, align 4
  tail call void @glVertex2f(float noundef %38, float noundef %40)
  tail call void @glEnd()
  br label %41

41:                                               ; preds = %32, %3
  tail call void @glBegin(i32 noundef 2)
  %42 = getelementptr inbounds i8, ptr %0, i64 32
  tail call void @glVertex2fv(ptr noundef nonnull %42)
  %43 = getelementptr inbounds i8, ptr %0, i64 40
  %44 = load float, ptr %43, align 8
  %45 = getelementptr inbounds i8, ptr %0, i64 36
  %46 = load float, ptr %45, align 4
  tail call void @glVertex2f(float noundef %44, float noundef %46)
  tail call void @glVertex2fv(ptr noundef nonnull %43)
  %47 = load float, ptr %42, align 16
  %48 = getelementptr inbounds i8, ptr %0, i64 44
  %49 = load float, ptr %48, align 4
  tail call void @glVertex2f(float noundef %47, float noundef %49)
  tail call void @glEnd()
  tail call void @glDisable(i32 noundef 3057)
  tail call void @glPopAttrib()
  tail call void @glPopMatrix()
  tail call void @glMatrixMode(i32 noundef 5889)
  tail call void @glPopMatrix()
  tail call void @glMatrixMode(i32 noundef 5888)
  ret void
}